target datalayout = "e-m:e-p270:32:32-p271:32:32-p272:64:64-i64:64-i128:128-f80:128-n8:16:32:64-S128"
target triple = "x86_64-pc-linux-gnu"

%struct.EC_PKEY_CTX = type { ptr, ptr, ptr, i8, i8, ptr, ptr, i64, i64 }
%struct.evp_pkey_ctx_st = type { i32, ptr, ptr, ptr, ptr, %union.anon, %struct.anon.4, ptr, ptr, ptr, i32, i32, ptr, ptr, ptr, ptr, ptr, i8, ptr }
%union.anon = type { %struct.anon.0 }
%struct.anon.0 = type { ptr, ptr }
%struct.anon.4 = type { ptr, ptr, i64, i8 }

@.str = private unnamed_addr constant [32 x i8] c"../openssl/crypto/ec/ec_pmeth.c\00", align 1

; Function Attrs: nounwind uwtable
define internal i32 @pkey_ec_kdf_derive(ptr noundef %0, ptr noundef %1, ptr noundef %2) #0 {
  %4 = alloca i32, align 4
  %5 = alloca ptr, align 8
  %6 = alloca ptr, align 8
  %7 = alloca ptr, align 8
  %8 = alloca ptr, align 8
  %9 = alloca ptr, align 8
  %10 = alloca i64, align 8
  %11 = alloca i32, align 4
  %12 = alloca i32, align 4
  store ptr %0, ptr %5, align 8, !tbaa !3
  store ptr %1, ptr %6, align 8, !tbaa !39
  store ptr %2, ptr %7, align 8, !tbaa !40
  call void @llvm.lifetime.start.p0(i64 8, ptr %8) #7
  %13 = load ptr, ptr %5, align 8, !tbaa !3
  %14 = getelementptr inbounds nuw %struct.evp_pkey_ctx_st, ptr %13, i32 0, i32 16
  %15 = load ptr, ptr %14, align 8, !tbaa !17
  store ptr %15, ptr %8, align 8, !tbaa !8
  call void @llvm.lifetime.start.p0(i64 8, ptr %9) #7
  store ptr null, ptr %9, align 8, !tbaa !39
  call void @llvm.lifetime.start.p0(i64 8, ptr %10) #7
  call void @llvm.lifetime.start.p0(i64 4, ptr %11) #7
  store i32 0, ptr %11, align 4, !tbaa !37
  %16 = load ptr, ptr %8, align 8, !tbaa !8
  %17 = getelementptr inbounds nuw %struct.EC_PKEY_CTX, ptr %16, i32 0, i32 4
  %18 = load i8, ptr %17, align 1, !tbaa !16
  %19 = sext i8 %18 to i32
  %20 = icmp eq i32 %19, 1
  br i1 %20, label %21, label %26

21:                                               ; preds = %3
  %22 = load ptr, ptr %5, align 8, !tbaa !3
  %23 = load ptr, ptr %6, align 8, !tbaa !39
  %24 = load ptr, ptr %7, align 8, !tbaa !40
  %25 = call i32 @pkey_ec_derive(ptr noundef %22, ptr noundef %23, ptr noundef %24)
  store i32 %25, ptr %4, align 4
  store i32 1, ptr %12, align 4
  br label %87

26:                                               ; preds = %3
  %27 = load ptr, ptr %6, align 8, !tbaa !39
  %28 = icmp ne ptr %27, null
  br i1 %28, label %34, label %29

29:                                               ; preds = %26
  %30 = load ptr, ptr %8, align 8, !tbaa !8
  %31 = getelementptr inbounds nuw %struct.EC_PKEY_CTX, ptr %30, i32 0, i32 8
  %32 = load i64, ptr %31, align 8, !tbaa !32
  %33 = load ptr, ptr %7, align 8, !tbaa !40
  store i64 %32, ptr %33, align 8, !tbaa !42
  store i32 1, ptr %4, align 4
  store i32 1, ptr %12, align 4
  br label %87

34:                                               ; preds = %26
  %35 = load ptr, ptr %7, align 8, !tbaa !40
  %36 = load i64, ptr %35, align 8, !tbaa !42
  %37 = load ptr, ptr %8, align 8, !tbaa !8
  %38 = getelementptr inbounds nuw %struct.EC_PKEY_CTX, ptr %37, i32 0, i32 8
  %39 = load i64, ptr %38, align 8, !tbaa !32
  %40 = icmp ne i64 %36, %39
  br i1 %40, label %41, label %42

41:                                               ; preds = %34
  store i32 0, ptr %4, align 4
  store i32 1, ptr %12, align 4
  br label %87

42:                                               ; preds = %34
  %43 = load ptr, ptr %5, align 8, !tbaa !3
  %44 = call i32 @pkey_ec_derive(ptr noundef %43, ptr noundef null, ptr noundef %10)
  %45 = icmp ne i32 %44, 0
  br i1 %45, label %47, label %46

46:                                               ; preds = %42
  store i32 0, ptr %4, align 4
  store i32 1, ptr %12, align 4
  br label %87

47:                                               ; preds = %42
  %48 = load i64, ptr %10, align 8, !tbaa !42
  %49 = call noalias ptr @CRYPTO_malloc(i64 noundef %48, ptr noundef @.str, i32 noundef 230)
  store ptr %49, ptr %9, align 8, !tbaa !39
  %50 = icmp eq ptr %49, null
  br i1 %50, label %51, label %52

51:                                               ; preds = %47
  store i32 0, ptr %4, align 4
  store i32 1, ptr %12, align 4
  br label %87

52:                                               ; preds = %47
  %53 = load ptr, ptr %5, align 8, !tbaa !3
  %54 = load ptr, ptr %9, align 8, !tbaa !39
  %55 = call i32 @pkey_ec_derive(ptr noundef %53, ptr noundef %54, ptr noundef %10)
  %56 = icmp ne i32 %55, 0
  br i1 %56, label %58, label %57

57:                                               ; preds = %52
  br label %83

58:                                               ; preds = %52
  %59 = load ptr, ptr %6, align 8, !tbaa !39
  %60 = load ptr, ptr %7, align 8, !tbaa !40
  %61 = load i64, ptr %60, align 8, !tbaa !42
  %62 = load ptr, ptr %9, align 8, !tbaa !39
  %63 = load i64, ptr %10, align 8, !tbaa !42
  %64 = load ptr, ptr %8, align 8, !tbaa !8
  %65 = getelementptr inbounds nuw %struct.EC_PKEY_CTX, ptr %64, i32 0, i32 6
  %66 = load ptr, ptr %65, align 8, !tbaa !33
  %67 = load ptr, ptr %8, align 8, !tbaa !8
  %68 = getelementptr inbounds nuw %struct.EC_PKEY_CTX, ptr %67, i32 0, i32 7
  %69 = load i64, ptr %68, align 8, !tbaa !34
  %70 = load ptr, ptr %8, align 8, !tbaa !8
  %71 = getelementptr inbounds nuw %struct.EC_PKEY_CTX, ptr %70, i32 0, i32 5
  %72 = load ptr, ptr %71, align 8, !tbaa !31
  %73 = load ptr, ptr %5, align 8, !tbaa !3
  %74 = getelementptr inbounds nuw %struct.evp_pkey_ctx_st, ptr %73, i32 0, i32 1
  %75 = load ptr, ptr %74, align 8, !tbaa !43
  %76 = load ptr, ptr %5, align 8, !tbaa !3
  %77 = getelementptr inbounds nuw %struct.evp_pkey_ctx_st, ptr %76, i32 0, i32 2
  %78 = load ptr, ptr %77, align 8, !tbaa !44
  %79 = call i32 @ossl_ecdh_kdf_X9_63(ptr noundef %59, i64 noundef %61, ptr noundef %62, i64 noundef %63, ptr noundef %66, i64 noundef %69, ptr noundef %72, ptr noundef %75, ptr noundef %78)
  %80 = icmp ne i32 %79, 0
  br i1 %80, label %82, label %81

81:                                               ; preds = %58
  br label %83

82:                                               ; preds = %58
  store i32 1, ptr %11, align 4, !tbaa !37
  br label %83

83:                                               ; preds = %82, %81, %57
  %84 = load ptr, ptr %9, align 8, !tbaa !39
  %85 = load i64, ptr %10, align 8, !tbaa !42
  call void @CRYPTO_clear_free(ptr noundef %84, i64 noundef %85, ptr noundef @.str, i32 noundef 242)
  %86 = load i32, ptr %11, align 4, !tbaa !37
  store i32 %86, ptr %4, align 4
  store i32 1, ptr %12, align 4
  br label %87

87:                                               ; preds = %83, %51, %46, %41, %29, %21
  call void @llvm.lifetime.end.p0(i64 4, ptr %11) #7
  call void @llvm.lifetime.end.p0(i64 8, ptr %10) #7
  call void @llvm.lifetime.end.p0(i64 8, ptr %9) #7
  call void @llvm.lifetime.end.p0(i64 8, ptr %8) #7
  %88 = load i32, ptr %4, align 4
  ret i32 %88
}