; Function Attrs: nounwind uwtable
define internal range(i32 0, 2) i32 @pkey_ec_kdf_derive(ptr noundef readonly captures(none) %0, ptr noundef %1, ptr noundef captures(none) %2) #1 {
  %4 = alloca i64, align 8
  %5 = getelementptr inbounds nuw i8, ptr %0, i64 152
  %6 = load ptr, ptr %5, align 8, !tbaa !14
  call void @llvm.lifetime.start.p0(i64 8, ptr nonnull %4) #6
  %7 = getelementptr inbounds nuw i8, ptr %6, i64 25
  %8 = load i8, ptr %7, align 1, !tbaa !13
  %9 = icmp eq i8 %8, 1
  br i1 %9, label %10, label %12

10:                                               ; preds = %3
  %11 = tail call fastcc i32 @pkey_ec_derive(ptr noundef nonnull %0, ptr noundef %1, ptr noundef %2)
  br label %42

12:                                               ; preds = %3
  %.not = icmp eq ptr %1, null
  br i1 %.not, label %13, label %16

13:                                               ; preds = %12
  %14 = getelementptr inbounds nuw i8, ptr %6, i64 56
  %15 = load i64, ptr %14, align 8, !tbaa !29
  store i64 %15, ptr %2, align 8, !tbaa !35
  br label %42

16:                                               ; preds = %12
  %17 = load i64, ptr %2, align 8, !tbaa !35
  %18 = getelementptr inbounds nuw i8, ptr %6, i64 56
  %19 = load i64, ptr %18, align 8, !tbaa !29
  %.not26 = icmp eq i64 %17, %19
  br i1 %.not26, label %20, label %42

20:                                               ; preds = %16
  %21 = call fastcc i32 @pkey_ec_derive(ptr noundef nonnull %0, ptr noundef null, ptr noundef nonnull %4)
  %.not27 = icmp eq i32 %21, 0
  br i1 %.not27, label %42, label %22

22:                                               ; preds = %20
  %23 = load i64, ptr %4, align 8, !tbaa !35
  %24 = tail call noalias ptr @CRYPTO_malloc(i64 noundef %23, ptr noundef nonnull @.str, i32 noundef 230) #6
  %25 = icmp eq ptr %24, null
  br i1 %25, label %42, label %26

26:                                               ; preds = %22
  %27 = call fastcc i32 @pkey_ec_derive(ptr noundef nonnull %0, ptr noundef nonnull %24, ptr noundef nonnull %4)
  %.not28 = icmp eq i32 %27, 0
  %.pre = load i64, ptr %4, align 8, !tbaa !35
  br i1 %.not28, label %41, label %28

28:                                               ; preds = %26
  %29 = load i64, ptr %2, align 8, !tbaa !35
  %30 = getelementptr inbounds nuw i8, ptr %6, i64 40
  %31 = load ptr, ptr %30, align 8, !tbaa !30
  %32 = getelementptr inbounds nuw i8, ptr %6, i64 48
  %33 = load i64, ptr %32, align 8, !tbaa !31
  %34 = getelementptr inbounds nuw i8, ptr %6, i64 32
  %35 = load ptr, ptr %34, align 8, !tbaa !28
  %36 = getelementptr inbounds nuw i8, ptr %0, i64 8
  %37 = load ptr, ptr %36, align 8, !tbaa !37
  %38 = getelementptr inbounds nuw i8, ptr %0, i64 16
  %39 = load ptr, ptr %38, align 8, !tbaa !38
  %40 = tail call i32 @ossl_ecdh_kdf_X9_63(ptr noundef nonnull %1, i64 noundef %29, ptr noundef nonnull %24, i64 noundef %.pre, ptr noundef %31, i64 noundef %33, ptr noundef %35, ptr noundef %37, ptr noundef %39) #6
  %.not29 = icmp ne i32 %40, 0
  %spec.select = zext i1 %.not29 to i32
  br label %41

41:                                               ; preds = %28, %26
  %.0 = phi i32 [ 0, %26 ], [ %spec.select, %28 ]
  tail call void @CRYPTO_clear_free(ptr noundef nonnull %24, i64 noundef %.pre, ptr noundef nonnull @.str, i32 noundef 242) #6
  br label %42

42:                                               ; preds = %22, %20, %16, %41, %13, %10
  %.023 = phi i32 [ %11, %10 ], [ %.0, %41 ], [ 1, %13 ], [ 0, %16 ], [ 0, %20 ], [ 0, %22 ]
  call void @llvm.lifetime.end.p0(i64 8, ptr nonnull %4) #6
  ret i32 %.023
}